; Function Attrs: mustprogress nofree norecurse nosync nounwind willreturn memory(argmem: read) uwtable
define internal range(i32 0, 6) i32 @check_purpose_smime_encrypt(ptr readnone captures(none) %0, ptr noundef readonly captures(none) %1, i32 noundef %2) #8 {
  %4 = getelementptr inbounds nuw i8, ptr %1, i64 64
  %5 = load i64, ptr %4, align 8, !tbaa !6
  %6 = and i64 %5, 4
  %.not.i = icmp eq i64 %6, 0
  br i1 %.not.i, label %11, label %7

7:                                                ; preds = %3
  %8 = getelementptr inbounds nuw i8, ptr %1, i64 80
  %9 = load i64, ptr %8, align 8, !tbaa !53
  %10 = and i64 %9, 4
  %.not12.i = icmp eq i64 %10, 0
  br i1 %.not12.i, label %purpose_smime.exit.thread, label %11

11:                                               ; preds = %7, %3
  %.not13.i = icmp eq i32 %2, 0
  br i1 %.not13.i, label %30, label %12

12:                                               ; preds = %11
  %13 = and i64 %5, 2
  %.not.i.i = icmp ne i64 %13, 0
  br i1 %.not.i.i, label %14, label %18

14:                                               ; preds = %12
  %15 = getelementptr inbounds nuw i8, ptr %1, i64 72
  %16 = load i64, ptr %15, align 8, !tbaa !52
  %17 = and i64 %16, 4
  %.not8.i.i = icmp eq i64 %17, 0
  br i1 %.not8.i.i, label %purpose_smime.exit.thread, label %18

18:                                               ; preds = %14, %12
  %19 = and i64 %5, 1
  %.not9.i.i = icmp eq i64 %19, 0
  br i1 %.not9.i.i, label %20, label %check_ca.exit.i

20:                                               ; preds = %18
  %21 = and i64 %5, 8256
  %22 = icmp eq i64 %21, 8256
  %brmerge.i.i = or i1 %22, %.not.i.i
  %.mux.i.i = select i1 %22, i32 3, i32 4
  br i1 %brmerge.i.i, label %check_ca.exit.thread25.i, label %23

23:                                               ; preds = %20
  %24 = and i64 %5, 8
  %.not11.i.i = icmp eq i64 %24, 0
  br i1 %.not11.i.i, label %purpose_smime.exit.thread, label %25

25:                                               ; preds = %23
  %26 = getelementptr inbounds nuw i8, ptr %1, i64 88
  %27 = load i64, ptr %26, align 8, !tbaa !56
  %28 = and i64 %27, 2
  %.not19.i = icmp eq i64 %28, 0
  br i1 %.not19.i, label %purpose_smime.exit.thread, label %check_ca.exit.thread25.i

check_ca.exit.i:                                  ; preds = %18
  %29 = and i64 %5, 16
  %cond.i = icmp eq i64 %29, 0
  br i1 %cond.i, label %purpose_smime.exit.thread, label %check_ca.exit.thread25.i

check_ca.exit.thread25.i:                         ; preds = %check_ca.exit.i, %25, %20
  %.0.i24.i = phi i32 [ 1, %check_ca.exit.i ], [ %.mux.i.i, %20 ], [ 5, %25 ]
  br label %purpose_smime.exit.thread

30:                                               ; preds = %11
  %31 = and i64 %5, 8
  %.not14.i = icmp eq i64 %31, 0
  br i1 %.not14.i, label %purpose_smime.exit.thread13, label %32

32:                                               ; preds = %30
  %33 = getelementptr inbounds nuw i8, ptr %1, i64 88
  %34 = load i64, ptr %33, align 8, !tbaa !56
  %35 = and i64 %34, 32
  %.not15.i = icmp eq i64 %35, 0
  br i1 %.not15.i, label %purpose_smime.exit, label %purpose_smime.exit.thread13

purpose_smime.exit:                               ; preds = %32
  %36 = trunc i64 %34 to i32
  %37 = lshr i32 %36, 6
  %..i = and i32 %37, 2
  %38 = icmp eq i32 %..i, 0
  br i1 %38, label %purpose_smime.exit.thread, label %purpose_smime.exit.thread13

purpose_smime.exit.thread13:                      ; preds = %30, %32, %purpose_smime.exit
  %.0.i15 = phi i32 [ %..i, %purpose_smime.exit ], [ 1, %32 ], [ 1, %30 ]
  %39 = and i64 %5, 2
  %.not = icmp eq i64 %39, 0
  br i1 %.not, label %44, label %40

40:                                               ; preds = %purpose_smime.exit.thread13
  %41 = getelementptr inbounds nuw i8, ptr %1, i64 72
  %42 = load i64, ptr %41, align 8, !tbaa !52
  %43 = and i64 %42, 32
  %.not10 = icmp eq i64 %43, 0
  br i1 %.not10, label %purpose_smime.exit.thread, label %44

44:                                               ; preds = %40, %purpose_smime.exit.thread13
  br label %purpose_smime.exit.thread

purpose_smime.exit.thread:                        ; preds = %check_ca.exit.thread25.i, %23, %25, %14, %check_ca.exit.i, %7, %40, %purpose_smime.exit, %44
  %.0 = phi i32 [ %.0.i15, %44 ], [ 0, %purpose_smime.exit ], [ 0, %40 ], [ 0, %23 ], [ 0, %25 ], [ 0, %14 ], [ 0, %check_ca.exit.i ], [ %.0.i24.i, %check_ca.exit.thread25.i ], [ 0, %7 ]
  ret i32 %.0
}